(dp1
S'to'
p2
c__builtin__
set
p3
((lp4
S'D031'
p5
aS'D030'
p6
aS'D033'
p7
aS'D032'
p8
aS'D035'
p9
aS'D034'
p10
aS'D037'
p11
aS'D036'
p12
aS'D039'
p13
aS'D038'
p14
aS'D047'
p15
aS'D013'
p16
aS'D012'
p17
aS'D011'
p18
aS'D010'
p19
aS'D017'
p20
aS'D016'
p21
aS'D015'
p22
aS'D058'
p23
aS'D026'
p24
aS'D027'
p25
aS'D024'
p26
aS'D025'
p27
aS'D022'
p28
aS'D023'
p29
aS'D021'
p30
aS'D028'
p31
aS'D029'
p32
aS'D061'
p33
aS'D040'
p34
aS'D041'
p35
aS'D042'
p36
aS'D043'
p37
aS'D001'
p38
aS'D002'
p39
aS'D014'
p40
aS'D004'
p41
aS'D005'
p42
aS'D007'
p43
atRp44
sS'fg'
p45
g3
((lp46
S'D057'
p47
aS'D046'
p48
aS'D044'
p49
aS'D045'
p50
aS'D055'
p51
aS'D054'
p52
aS'D053'
p53
aS'D051'
p54
aS'D050'
p55
aS'D048'
p56
aS'D049'
p57
aS'D006'
p58
atRp59
sS'lg'
p60
g3
((lp61
S'D020'
p62
aS'D056'
p63
aS'D060'
p64
aS'D008'
p65
aS'D009'
p66
aS'D019'
p67
aS'D018'
p68
aS'D052'
p69
aS'D059'
p70
atRp71
s.