(dp1
S'D047'
p2
(dp3
S'right'
p4
I0
sS'left'
p5
I1
ssS'D060'
p6
(dp7
g4
I0
sg5
I1
ssS'D009'
p8
(dp9
g4
I0
sg5
I1
ssS'D029'
p10
(dp11
g4
I1
sg5
I1
ssS'D031'
p12
(dp13
g4
I1
sg5
I1
ssS'D044'
p14
(dp15
g4
I0
sg5
I0
ssS'D033'
p16
(dp17
g4
I1
sg5
I2
ssS'D032'
p18
(dp19
g4
I2
sg5
I1
ssS'D035'
p20
(dp21
g4
I1
sg5
I1
ssS'D034'
p22
(dp23
g4
I1
sg5
I1
ssS'D037'
p24
(dp25
g4
I1
sg5
I1
ssS'D036'
p26
(dp27
g4
I1
sg5
I1
ssS'D039'
p28
(dp29
g4
I1
sg5
I1
ssS'D038'
p30
(dp31
g4
I1
sg5
I1
ssS'D055'
p32
(dp33
g4
I0
sg5
I1
ssS'D057'
p34
(dp35
g4
I0
sg5
I0
ssS'D056'
p36
(dp37
g4
I0
sg5
I0
ssS'D019'
p38
(dp39
g4
I1
sg5
I1
ssS'D054'
p40
(dp41
g4
I0
sg5
I0
ssS'D053'
p42
(dp43
g4
I0
sg5
I0
ssS'D052'
p44
(dp45
g4
I0
sg5
I0
ssS'D051'
p46
(dp47
g4
I0
sg5
I0
ssS'D050'
p48
(dp49
g4
I0
sg5
I0
ssS'D013'
p50
(dp51
g4
I2
sg5
I4
ssS'D012'
p52
(dp53
g4
I4
sg5
I3
ssS'D011'
p54
(dp55
g4
I3
sg5
I4
ssS'D010'
p56
(dp57
g4
I1
sg5
I3
ssS'D017'
p58
(dp59
g4
I0
sg5
I0
ssS'D016'
p60
(dp61
g4
I1
sg5
I0
ssS'D059'
p62
(dp63
g4
I0
sg5
I1
ssS'D014'
p64
(dp65
g4
I2
sg5
I2
ssS'D030'
p66
(dp67
g4
I0
sg5
I2
ssS'D041'
p68
(dp69
g4
I1
sg5
I1
ssS'D018'
p70
(dp71
g4
I3
sg5
I1
ssS'D026'
p72
(dp73
g4
I1
sg5
I1
ssS'D027'
p74
(dp75
g4
I2
sg5
I1
ssS'D024'
p76
(dp77
g4
I1
sg5
I1
ssS'D025'
p78
(dp79
g4
I2
sg5
I2
ssS'D022'
p80
(dp81
g4
I2
sg5
I1
ssS'D023'
p82
(dp83
g4
I1
sg5
I1
ssS'D020'
p84
(dp85
g4
I1
sg5
I0
ssS'D021'
p86
(dp87
g4
I1
sg5
I1
ssS'D004'
p88
(dp89
g4
I0
sg5
I1
ssS'D028'
p90
(dp91
g4
I1
sg5
I1
ssS'D049'
p92
(dp93
g4
I0
sg5
I1
ssS'D008'
p94
(dp95
g4
I1
sg5
I1
ssS'D045'
p96
(dp97
g4
I0
sg5
I0
ssS'D046'
p98
(dp99
g4
I0
sg5
I0
ssS'D061'
p100
(dp101
g4
I0
sg5
I0
ssS'D040'
p102
(dp103
g4
I1
sg5
I1
ssS'D015'
p104
(dp105
g4
I1
sg5
I3
ssS'D042'
p106
(dp107
g4
I0
sg5
I1
ssS'D043'
p108
(dp109
g4
I0
sg5
I1
ssS'D001'
p110
(dp111
g4
I0
sg5
I4
ssS'D002'
p112
(dp113
g4
I1
sg5
I0
ssS'D058'
p114
(dp115
g4
I0
sg5
I0
ssS'D048'
p116
(dp117
g4
I0
sg5
I1
ssS'D005'
p118
(dp119
g4
I3
sg5
I2
ssS'D006'
p120
(dp121
g4
I0
sg5
I4
ssS'D007'
p122
(dp123
g4
I1
sg5
I1
ss.