(dp1
S'D010'
p2
(dp3
S'right'
p4
I1
sS'left'
p5
I1
ssS'D002'
p6
(dp7
g4
I2
sg5
I2
ssS'D007'
p8
(dp9
g4
I2
sg5
I1
ssS'D020'
p10
(dp11
g4
I3
sg5
I3
ssS'D004'
p12
(dp13
g4
I3
sg5
I3
ssS'D005'
p14
(dp15
g4
I1
sg5
I4
ssS'D008'
p16
(dp17
g4
I3
sg5
I3
ssS'D009'
p18
(dp19
g4
I3
sg5
I2
ssS'D019'
p20
(dp21
g4
I1
sg5
I1
ssS'D018'
p22
(dp23
g4
I1
sg5
I3
ssS'D006'
p24
(dp25
g4
I1
sg5
I3
ssS'D012'
p26
(dp27
g4
I1
sg5
I4
ssS'D013'
p28
(dp29
g4
I0
sg5
I2
ssS'D001'
p30
(dp31
g4
I3
sg5
I3
ssS'D011'
p32
(dp33
g4
I2
sg5
I4
ssS'D003'
p34
(dp35
g4
I1
sg5
I2
ssS'D017'
p36
(dp37
g4
I2
sg5
I3
ssS'D016'
p38
(dp39
g4
I3
sg5
I3
ssS'D015'
p40
(dp41
g4
I2
sg5
I2
ssS'D014'
p42
(dp43
g4
I3
sg5
I3
ss.